(lp0
(dp1
Vdomain
p2
V.google.com
p3
sVsecure
p4
I00
sVvalue
p5
VtQWX19jlYgNEc5xPr9Ff-SlJ-lalZLlMMZAkgYR1JcNI3RwavGCeXSAQw-owcanT82UK9w.
p6
sVexpiry
p7
I1580391086
sVpath
p8
V/
p9
sVhttpOnly
p10
I00
sVname
p11
VSID
p12
sa(dp13
Vdomain
p14
V.google.com
p15
sVsecure
p16
I00
sVvalue
p17
VAkWpjc1K_xKrBQ8zX
p18
sVexpiry
p19
I1580391086
sVpath
p20
g9
sVhttpOnly
p21
I01
sVname
p22
VHSID
p23
sa(dp24
Vdomain
p25
V.google.com
p26
sVsecure
p27
I01
sVvalue
p28
VAVpnTVcWzYVqwiHpH
p29
sVexpiry
p30
I1580391086
sVpath
p31
g9
sVhttpOnly
p32
I01
sVname
p33
VSSID
p34
sa(dp35
Vdomain
p36
V.google.com
p37
sVsecure
p38
I00
sVvalue
p39
VVY1scFMK87L2-Pfi/AGusdShuVx3UeQApb
p40
sVexpiry
p41
I1580391086
sVpath
p42
g9
sVhttpOnly
p43
I00
sVname
p44
VAPISID
p45
sa(dp46
Vdomain
p47
V.google.com
p48
sVsecure
p49
I01
sVvalue
p50
VuDD2GiZ1VEkXBpbl/A6l1Rw6-M8Lz1DkLp
p51
sVexpiry
p52
I1580391086
sVpath
p53
g9
sVhttpOnly
p54
I00
sVname
p55
VSAPISID
p56
sa(dp57
Vdomain
p58
V.google.com
p59
sVsecure
p60
I00
sVvalue
p61
V122=ceFagltt8YOJWo_-fixtx8cK1YothTWwYAY_PhsahZmLMVIPWgzinOpLozR5HQoSguP-_Jy-Euy2QVoDUfYHcQ6a33biwWajcTeYH27gnEuI7ybo3NJAAXkk1Kjp_wTWjn3R9yXTa2HBsXUlrrPmgfRtlN9zOOwQMUpxG-uvTIKzZAZjMlqwtKfTDkA
p62
sVexpiry
p63
I1533130286
sVpath
p64
g9
sVhttpOnly
p65
I01
sVname
p66
VNID
p67
sa(dp68
Vdomain
p69
V.google.com
p70
sVsecure
p71
I00
sVvalue
p72
VAAiTGe9WUYkJsM5iQJtGlrJo_ZGa1ll8Koo3ucYT1AWJPz-EGrbC9DTX7VJUM78zZw2gqAsOXA
p73
sVexpiry
p74
I1525095102
sVpath
p75
g9
sVhttpOnly
p76
I00
sVname
p77
VSIDCC
p78
sa.